target datalayout = "e-m:e-p270:32:32-p271:32:32-p272:64:64-i64:64-i128:128-f80:128-n8:16:32:64-S128"
target triple = "x86_64-pc-linux-gnu"

%"class.pxrInternal_v0_24__pxrReserved__::TfEnum" = type <{ ptr, i32, [4 x i8] }>

@.str.24 = private unnamed_addr constant [49 x i8] c"PxOsdMeshTopologyValidation::Code::InvalidScheme\00", align 1
@.str.25 = private unnamed_addr constant [54 x i8] c"PxOsdMeshTopologyValidation::Code::InvalidOrientation\00", align 1
@.str.26 = private unnamed_addr constant [62 x i8] c"PxOsdMeshTopologyValidation::Code::InvalidTriangleSubdivision\00", align 1
@.str.27 = private unnamed_addr constant [66 x i8] c"PxOsdMeshTopologyValidation::Code::InvalidVertexInterpolationRule\00", align 1
@.str.28 = private unnamed_addr constant [71 x i8] c"PxOsdMeshTopologyValidation::Code::InvalidFaceVaryingInterpolationRule\00", align 1
@.str.29 = private unnamed_addr constant [55 x i8] c"PxOsdMeshTopologyValidation::Code::InvalidCreaseMethod\00", align 1
@.str.30 = private unnamed_addr constant [62 x i8] c"PxOsdMeshTopologyValidation::Code::InvalidCreaseLengthElement\00", align 1
@.str.31 = private unnamed_addr constant [60 x i8] c"PxOsdMeshTopologyValidation::Code::InvalidCreaseIndicesSize\00", align 1
@.str.32 = private unnamed_addr constant [63 x i8] c"PxOsdMeshTopologyValidation::Code::InvalidCreaseIndicesElement\00", align 1
@.str.33 = private unnamed_addr constant [60 x i8] c"PxOsdMeshTopologyValidation::Code::InvalidCreaseWeightsSize\00", align 1
@.str.34 = private unnamed_addr constant [57 x i8] c"PxOsdMeshTopologyValidation::Code::NegativeCreaseWeights\00", align 1
@.str.35 = private unnamed_addr constant [63 x i8] c"PxOsdMeshTopologyValidation::Code::InvalidCornerIndicesElement\00", align 1
@.str.36 = private unnamed_addr constant [57 x i8] c"PxOsdMeshTopologyValidation::Code::NegativeCornerWeights\00", align 1
@.str.37 = private unnamed_addr constant [60 x i8] c"PxOsdMeshTopologyValidation::Code::InvalidCornerWeightsSize\00", align 1
@.str.38 = private unnamed_addr constant [66 x i8] c"PxOsdMeshTopologyValidation::Code::InvalidFaceVertexCountsElement\00", align 1
@.str.39 = private unnamed_addr constant [67 x i8] c"PxOsdMeshTopologyValidation::Code::InvalidFaceVertexIndicesElement\00", align 1
@.str.40 = private unnamed_addr constant [64 x i8] c"PxOsdMeshTopologyValidation::Code::InvalidFaceVertexIndicesSize\00", align 1
@_ZTIN32pxrInternal_v0_24__pxrReserved__27PxOsdMeshTopologyValidation4CodeE = linkonce_odr constant { ptr, ptr } { ptr getelementptr inbounds (ptr, ptr @_ZTVN10__cxxabiv116__enum_type_infoE, i64 2), ptr @_ZTSN32pxrInternal_v0_24__pxrReserved__27PxOsdMeshTopologyValidation4CodeE }, comdat, align 8

; Function Attrs: mustprogress nounwind uwtable
define linkonce_odr noundef ptr @_ZN32pxrInternal_v0_24__pxrReserved__6TfEnum10_NameIdentEPKc(ptr noundef %0) #2 comdat align 2 {
  %2 = alloca ptr, align 8
  store ptr %0, ptr %2, align 8
  %3 = load ptr, ptr %2, align 8
  ret ptr %3
}

; Function Attrs: mustprogress nounwind uwtable
define linkonce_odr void @_ZN32pxrInternal_v0_24__pxrReserved__6TfEnumC2INS_27PxOsdMeshTopologyValidation4CodeEEET_PNSt9enable_ifIXsr3std7is_enumIS4_EE5valueEvE4typeE(ptr noundef nonnull align 8 dereferenceable(12) %0, i32 noundef %1, ptr noundef %2) unnamed_addr #2 comdat align 2 {
  %4 = alloca ptr, align 8
  %5 = alloca i32, align 4
  %6 = alloca ptr, align 8
  store ptr %0, ptr %4, align 8
  store i32 %1, ptr %5, align 4
  store ptr %2, ptr %6, align 8
  %7 = load ptr, ptr %4, align 8
  %8 = getelementptr inbounds nuw %"class.pxrInternal_v0_24__pxrReserved__::TfEnum", ptr %7, i32 0, i32 0
  store ptr @_ZTIN32pxrInternal_v0_24__pxrReserved__27PxOsdMeshTopologyValidation4CodeE, ptr %8, align 8
  %9 = getelementptr inbounds nuw %"class.pxrInternal_v0_24__pxrReserved__::TfEnum", ptr %7, i32 0, i32 1
  %10 = load i32, ptr %5, align 4
  store i32 %10, ptr %9, align 8
  ret void
}

; Function Attrs: mustprogress uwtable
define internal void @_ZN32pxrInternal_v0_24__pxrReserved__L22_Tf_RegistryFunction25EPNS_6TfEnumEPv(ptr noundef %0, ptr noundef %1) #0 {
  %3 = alloca ptr, align 8
  %4 = alloca ptr, align 8
  %5 = alloca %"class.pxrInternal_v0_24__pxrReserved__::TfEnum", align 8
  %6 = alloca %"class.pxrInternal_v0_24__pxrReserved__::TfEnum", align 8
  %7 = alloca %"class.pxrInternal_v0_24__pxrReserved__::TfEnum", align 8
  %8 = alloca %"class.pxrInternal_v0_24__pxrReserved__::TfEnum", align 8
  %9 = alloca %"class.pxrInternal_v0_24__pxrReserved__::TfEnum", align 8
  %10 = alloca %"class.pxrInternal_v0_24__pxrReserved__::TfEnum", align 8
  %11 = alloca %"class.pxrInternal_v0_24__pxrReserved__::TfEnum", align 8
  %12 = alloca %"class.pxrInternal_v0_24__pxrReserved__::TfEnum", align 8
  %13 = alloca %"class.pxrInternal_v0_24__pxrReserved__::TfEnum", align 8
  %14 = alloca %"class.pxrInternal_v0_24__pxrReserved__::TfEnum", align 8
  %15 = alloca %"class.pxrInternal_v0_24__pxrReserved__::TfEnum", align 8
  %16 = alloca %"class.pxrInternal_v0_24__pxrReserved__::TfEnum", align 8
  %17 = alloca %"class.pxrInternal_v0_24__pxrReserved__::TfEnum", align 8
  %18 = alloca %"class.pxrInternal_v0_24__pxrReserved__::TfEnum", align 8
  %19 = alloca %"class.pxrInternal_v0_24__pxrReserved__::TfEnum", align 8
  %20 = alloca %"class.pxrInternal_v0_24__pxrReserved__::TfEnum", align 8
  %21 = alloca %"class.pxrInternal_v0_24__pxrReserved__::TfEnum", align 8
  store ptr %0, ptr %3, align 8
  store ptr %1, ptr %4, align 8
  call void @_ZN32pxrInternal_v0_24__pxrReserved__6TfEnumC2INS_27PxOsdMeshTopologyValidation4CodeEEET_PNSt9enable_ifIXsr3std7is_enumIS4_EE5valueEvE4typeE(ptr noundef nonnull align 8 dereferenceable(12) %5, i32 noundef 0, ptr noundef null)
  %22 = call noundef ptr @_ZN32pxrInternal_v0_24__pxrReserved__6TfEnum10_NameIdentEPKc(ptr noundef null)
  %23 = getelementptr inbounds nuw { ptr, i32 }, ptr %5, i32 0, i32 0
  %24 = load ptr, ptr %23, align 8
  %25 = getelementptr inbounds nuw { ptr, i32 }, ptr %5, i32 0, i32 1
  %26 = load i32, ptr %25, align 8
  call void @_ZN32pxrInternal_v0_24__pxrReserved__6TfEnum8_AddNameES0_PKcS2_(ptr %24, i32 %26, ptr noundef @.str.24, ptr noundef %22)
  call void @_ZN32pxrInternal_v0_24__pxrReserved__6TfEnumC2INS_27PxOsdMeshTopologyValidation4CodeEEET_PNSt9enable_ifIXsr3std7is_enumIS4_EE5valueEvE4typeE(ptr noundef nonnull align 8 dereferenceable(12) %6, i32 noundef 1, ptr noundef null)
  %27 = call noundef ptr @_ZN32pxrInternal_v0_24__pxrReserved__6TfEnum10_NameIdentEPKc(ptr noundef null)
  %28 = getelementptr inbounds nuw { ptr, i32 }, ptr %6, i32 0, i32 0
  %29 = load ptr, ptr %28, align 8
  %30 = getelementptr inbounds nuw { ptr, i32 }, ptr %6, i32 0, i32 1
  %31 = load i32, ptr %30, align 8
  call void @_ZN32pxrInternal_v0_24__pxrReserved__6TfEnum8_AddNameES0_PKcS2_(ptr %29, i32 %31, ptr noundef @.str.25, ptr noundef %27)
  call void @_ZN32pxrInternal_v0_24__pxrReserved__6TfEnumC2INS_27PxOsdMeshTopologyValidation4CodeEEET_PNSt9enable_ifIXsr3std7is_enumIS4_EE5valueEvE4typeE(ptr noundef nonnull align 8 dereferenceable(12) %7, i32 noundef 2, ptr noundef null)
  %32 = call noundef ptr @_ZN32pxrInternal_v0_24__pxrReserved__6TfEnum10_NameIdentEPKc(ptr noundef null)
  %33 = getelementptr inbounds nuw { ptr, i32 }, ptr %7, i32 0, i32 0
  %34 = load ptr, ptr %33, align 8
  %35 = getelementptr inbounds nuw { ptr, i32 }, ptr %7, i32 0, i32 1
  %36 = load i32, ptr %35, align 8
  call void @_ZN32pxrInternal_v0_24__pxrReserved__6TfEnum8_AddNameES0_PKcS2_(ptr %34, i32 %36, ptr noundef @.str.26, ptr noundef %32)
  call void @_ZN32pxrInternal_v0_24__pxrReserved__6TfEnumC2INS_27PxOsdMeshTopologyValidation4CodeEEET_PNSt9enable_ifIXsr3std7is_enumIS4_EE5valueEvE4typeE(ptr noundef nonnull align 8 dereferenceable(12) %8, i32 noundef 3, ptr noundef null)
  %37 = call noundef ptr @_ZN32pxrInternal_v0_24__pxrReserved__6TfEnum10_NameIdentEPKc(ptr noundef null)
  %38 = getelementptr inbounds nuw { ptr, i32 }, ptr %8, i32 0, i32 0
  %39 = load ptr, ptr %38, align 8
  %40 = getelementptr inbounds nuw { ptr, i32 }, ptr %8, i32 0, i32 1
  %41 = load i32, ptr %40, align 8
  call void @_ZN32pxrInternal_v0_24__pxrReserved__6TfEnum8_AddNameES0_PKcS2_(ptr %39, i32 %41, ptr noundef @.str.27, ptr noundef %37)
  call void @_ZN32pxrInternal_v0_24__pxrReserved__6TfEnumC2INS_27PxOsdMeshTopologyValidation4CodeEEET_PNSt9enable_ifIXsr3std7is_enumIS4_EE5valueEvE4typeE(ptr noundef nonnull align 8 dereferenceable(12) %9, i32 noundef 4, ptr noundef null)
  %42 = call noundef ptr @_ZN32pxrInternal_v0_24__pxrReserved__6TfEnum10_NameIdentEPKc(ptr noundef null)
  %43 = getelementptr inbounds nuw { ptr, i32 }, ptr %9, i32 0, i32 0
  %44 = load ptr, ptr %43, align 8
  %45 = getelementptr inbounds nuw { ptr, i32 }, ptr %9, i32 0, i32 1
  %46 = load i32, ptr %45, align 8
  call void @_ZN32pxrInternal_v0_24__pxrReserved__6TfEnum8_AddNameES0_PKcS2_(ptr %44, i32 %46, ptr noundef @.str.28, ptr noundef %42)
  call void @_ZN32pxrInternal_v0_24__pxrReserved__6TfEnumC2INS_27PxOsdMeshTopologyValidation4CodeEEET_PNSt9enable_ifIXsr3std7is_enumIS4_EE5valueEvE4typeE(ptr noundef nonnull align 8 dereferenceable(12) %10, i32 noundef 5, ptr noundef null)
  %47 = call noundef ptr @_ZN32pxrInternal_v0_24__pxrReserved__6TfEnum10_NameIdentEPKc(ptr noundef null)
  %48 = getelementptr inbounds nuw { ptr, i32 }, ptr %10, i32 0, i32 0
  %49 = load ptr, ptr %48, align 8
  %50 = getelementptr inbounds nuw { ptr, i32 }, ptr %10, i32 0, i32 1
  %51 = load i32, ptr %50, align 8
  call void @_ZN32pxrInternal_v0_24__pxrReserved__6TfEnum8_AddNameES0_PKcS2_(ptr %49, i32 %51, ptr noundef @.str.29, ptr noundef %47)
  call void @_ZN32pxrInternal_v0_24__pxrReserved__6TfEnumC2INS_27PxOsdMeshTopologyValidation4CodeEEET_PNSt9enable_ifIXsr3std7is_enumIS4_EE5valueEvE4typeE(ptr noundef nonnull align 8 dereferenceable(12) %11, i32 noundef 6, ptr noundef null)
  %52 = call noundef ptr @_ZN32pxrInternal_v0_24__pxrReserved__6TfEnum10_NameIdentEPKc(ptr noundef null)
  %53 = getelementptr inbounds nuw { ptr, i32 }, ptr %11, i32 0, i32 0
  %54 = load ptr, ptr %53, align 8
  %55 = getelementptr inbounds nuw { ptr, i32 }, ptr %11, i32 0, i32 1
  %56 = load i32, ptr %55, align 8
  call void @_ZN32pxrInternal_v0_24__pxrReserved__6TfEnum8_AddNameES0_PKcS2_(ptr %54, i32 %56, ptr noundef @.str.30, ptr noundef %52)
  call void @_ZN32pxrInternal_v0_24__pxrReserved__6TfEnumC2INS_27PxOsdMeshTopologyValidation4CodeEEET_PNSt9enable_ifIXsr3std7is_enumIS4_EE5valueEvE4typeE(ptr noundef nonnull align 8 dereferenceable(12) %12, i32 noundef 7, ptr noundef null)
  %57 = call noundef ptr @_ZN32pxrInternal_v0_24__pxrReserved__6TfEnum10_NameIdentEPKc(ptr noundef null)
  %58 = getelementptr inbounds nuw { ptr, i32 }, ptr %12, i32 0, i32 0
  %59 = load ptr, ptr %58, align 8
  %60 = getelementptr inbounds nuw { ptr, i32 }, ptr %12, i32 0, i32 1
  %61 = load i32, ptr %60, align 8
  call void @_ZN32pxrInternal_v0_24__pxrReserved__6TfEnum8_AddNameES0_PKcS2_(ptr %59, i32 %61, ptr noundef @.str.31, ptr noundef %57)
  call void @_ZN32pxrInternal_v0_24__pxrReserved__6TfEnumC2INS_27PxOsdMeshTopologyValidation4CodeEEET_PNSt9enable_ifIXsr3std7is_enumIS4_EE5valueEvE4typeE(ptr noundef nonnull align 8 dereferenceable(12) %13, i32 noundef 8, ptr noundef null)
  %62 = call noundef ptr @_ZN32pxrInternal_v0_24__pxrReserved__6TfEnum10_NameIdentEPKc(ptr noundef null)
  %63 = getelementptr inbounds nuw { ptr, i32 }, ptr %13, i32 0, i32 0
  %64 = load ptr, ptr %63, align 8
  %65 = getelementptr inbounds nuw { ptr, i32 }, ptr %13, i32 0, i32 1
  %66 = load i32, ptr %65, align 8
  call void @_ZN32pxrInternal_v0_24__pxrReserved__6TfEnum8_AddNameES0_PKcS2_(ptr %64, i32 %66, ptr noundef @.str.32, ptr noundef %62)
  call void @_ZN32pxrInternal_v0_24__pxrReserved__6TfEnumC2INS_27PxOsdMeshTopologyValidation4CodeEEET_PNSt9enable_ifIXsr3std7is_enumIS4_EE5valueEvE4typeE(ptr noundef nonnull align 8 dereferenceable(12) %14, i32 noundef 9, ptr noundef null)
  %67 = call noundef ptr @_ZN32pxrInternal_v0_24__pxrReserved__6TfEnum10_NameIdentEPKc(ptr noundef null)
  %68 = getelementptr inbounds nuw { ptr, i32 }, ptr %14, i32 0, i32 0
  %69 = load ptr, ptr %68, align 8
  %70 = getelementptr inbounds nuw { ptr, i32 }, ptr %14, i32 0, i32 1
  %71 = load i32, ptr %70, align 8
  call void @_ZN32pxrInternal_v0_24__pxrReserved__6TfEnum8_AddNameES0_PKcS2_(ptr %69, i32 %71, ptr noundef @.str.33, ptr noundef %67)
  call void @_ZN32pxrInternal_v0_24__pxrReserved__6TfEnumC2INS_27PxOsdMeshTopologyValidation4CodeEEET_PNSt9enable_ifIXsr3std7is_enumIS4_EE5valueEvE4typeE(ptr noundef nonnull align 8 dereferenceable(12) %15, i32 noundef 10, ptr noundef null)
  %72 = call noundef ptr @_ZN32pxrInternal_v0_24__pxrReserved__6TfEnum10_NameIdentEPKc(ptr noundef null)
  %73 = getelementptr inbounds nuw { ptr, i32 }, ptr %15, i32 0, i32 0
  %74 = load ptr, ptr %73, align 8
  %75 = getelementptr inbounds nuw { ptr, i32 }, ptr %15, i32 0, i32 1
  %76 = load i32, ptr %75, align 8
  call void @_ZN32pxrInternal_v0_24__pxrReserved__6TfEnum8_AddNameES0_PKcS2_(ptr %74, i32 %76, ptr noundef @.str.34, ptr noundef %72)
  call void @_ZN32pxrInternal_v0_24__pxrReserved__6TfEnumC2INS_27PxOsdMeshTopologyValidation4CodeEEET_PNSt9enable_ifIXsr3std7is_enumIS4_EE5valueEvE4typeE(ptr noundef nonnull align 8 dereferenceable(12) %16, i32 noundef 11, ptr noundef null)
  %77 = call noundef ptr @_ZN32pxrInternal_v0_24__pxrReserved__6TfEnum10_NameIdentEPKc(ptr noundef null)
  %78 = getelementptr inbounds nuw { ptr, i32 }, ptr %16, i32 0, i32 0
  %79 = load ptr, ptr %78, align 8
  %80 = getelementptr inbounds nuw { ptr, i32 }, ptr %16, i32 0, i32 1
  %81 = load i32, ptr %80, align 8
  call void @_ZN32pxrInternal_v0_24__pxrReserved__6TfEnum8_AddNameES0_PKcS2_(ptr %79, i32 %81, ptr noundef @.str.35, ptr noundef %77)
  call void @_ZN32pxrInternal_v0_24__pxrReserved__6TfEnumC2INS_27PxOsdMeshTopologyValidation4CodeEEET_PNSt9enable_ifIXsr3std7is_enumIS4_EE5valueEvE4typeE(ptr noundef nonnull align 8 dereferenceable(12) %17, i32 noundef 12, ptr noundef null)
  %82 = call noundef ptr @_ZN32pxrInternal_v0_24__pxrReserved__6TfEnum10_NameIdentEPKc(ptr noundef null)
  %83 = getelementptr inbounds nuw { ptr, i32 }, ptr %17, i32 0, i32 0
  %84 = load ptr, ptr %83, align 8
  %85 = getelementptr inbounds nuw { ptr, i32 }, ptr %17, i32 0, i32 1
  %86 = load i32, ptr %85, align 8
  call void @_ZN32pxrInternal_v0_24__pxrReserved__6TfEnum8_AddNameES0_PKcS2_(ptr %84, i32 %86, ptr noundef @.str.36, ptr noundef %82)
  call void @_ZN32pxrInternal_v0_24__pxrReserved__6TfEnumC2INS_27PxOsdMeshTopologyValidation4CodeEEET_PNSt9enable_ifIXsr3std7is_enumIS4_EE5valueEvE4typeE(ptr noundef nonnull align 8 dereferenceable(12) %18, i32 noundef 13, ptr noundef null)
  %87 = call noundef ptr @_ZN32pxrInternal_v0_24__pxrReserved__6TfEnum10_NameIdentEPKc(ptr noundef null)
  %88 = getelementptr inbounds nuw { ptr, i32 }, ptr %18, i32 0, i32 0
  %89 = load ptr, ptr %88, align 8
  %90 = getelementptr inbounds nuw { ptr, i32 }, ptr %18, i32 0, i32 1
  %91 = load i32, ptr %90, align 8
  call void @_ZN32pxrInternal_v0_24__pxrReserved__6TfEnum8_AddNameES0_PKcS2_(ptr %89, i32 %91, ptr noundef @.str.37, ptr noundef %87)
  call void @_ZN32pxrInternal_v0_24__pxrReserved__6TfEnumC2INS_27PxOsdMeshTopologyValidation4CodeEEET_PNSt9enable_ifIXsr3std7is_enumIS4_EE5valueEvE4typeE(ptr noundef nonnull align 8 dereferenceable(12) %19, i32 noundef 15, ptr noundef null)
  %92 = call noundef ptr @_ZN32pxrInternal_v0_24__pxrReserved__6TfEnum10_NameIdentEPKc(ptr noundef null)
  %93 = getelementptr inbounds nuw { ptr, i32 }, ptr %19, i32 0, i32 0
  %94 = load ptr, ptr %93, align 8
  %95 = getelementptr inbounds nuw { ptr, i32 }, ptr %19, i32 0, i32 1
  %96 = load i32, ptr %95, align 8
  call void @_ZN32pxrInternal_v0_24__pxrReserved__6TfEnum8_AddNameES0_PKcS2_(ptr %94, i32 %96, ptr noundef @.str.38, ptr noundef %92)
  call void @_ZN32pxrInternal_v0_24__pxrReserved__6TfEnumC2INS_27PxOsdMeshTopologyValidation4CodeEEET_PNSt9enable_ifIXsr3std7is_enumIS4_EE5valueEvE4typeE(ptr noundef nonnull align 8 dereferenceable(12) %20, i32 noundef 16, ptr noundef null)
  %97 = call noundef ptr @_ZN32pxrInternal_v0_24__pxrReserved__6TfEnum10_NameIdentEPKc(ptr noundef null)
  %98 = getelementptr inbounds nuw { ptr, i32 }, ptr %20, i32 0, i32 0
  %99 = load ptr, ptr %98, align 8
  %100 = getelementptr inbounds nuw { ptr, i32 }, ptr %20, i32 0, i32 1
  %101 = load i32, ptr %100, align 8
  call void @_ZN32pxrInternal_v0_24__pxrReserved__6TfEnum8_AddNameES0_PKcS2_(ptr %99, i32 %101, ptr noundef @.str.39, ptr noundef %97)
  call void @_ZN32pxrInternal_v0_24__pxrReserved__6TfEnumC2INS_27PxOsdMeshTopologyValidation4CodeEEET_PNSt9enable_ifIXsr3std7is_enumIS4_EE5valueEvE4typeE(ptr noundef nonnull align 8 dereferenceable(12) %21, i32 noundef 17, ptr noundef null)
  %102 = call noundef ptr @_ZN32pxrInternal_v0_24__pxrReserved__6TfEnum10_NameIdentEPKc(ptr noundef null)
  %103 = getelementptr inbounds nuw { ptr, i32 }, ptr %21, i32 0, i32 0
  %104 = load ptr, ptr %103, align 8
  %105 = getelementptr inbounds nuw { ptr, i32 }, ptr %21, i32 0, i32 1
  %106 = load i32, ptr %105, align 8
  call void @_ZN32pxrInternal_v0_24__pxrReserved__6TfEnum8_AddNameES0_PKcS2_(ptr %104, i32 %106, ptr noundef @.str.40, ptr noundef %102)
  ret void
}